; Function Attrs: mustprogress uwtable
define hidden void @_ZN2qe15expr_quant_elimC2ER11ast_managerRK10smt_paramsRK10params_ref(ptr noundef nonnull align 8 dereferenceable(80) %this, ptr noundef nonnull align 8 dereferenceable(976) %m, ptr noundef nonnull align 8 dereferenceable(800) %fp, ptr noundef nonnull align 8 dereferenceable(8) %p) unnamed_addr #3 align 2 personality ptr @__gxx_personality_v0 {
invoke.cont:
  store ptr %m, ptr %this, align 8
  %m_fparams = getelementptr inbounds i8, ptr %this, i64 8
  store ptr %fp, ptr %m_fparams, align 8
  %m_params = getelementptr inbounds i8, ptr %this, i64 16
  tail call void @_ZN10params_refC1ERKS_(ptr noundef nonnull align 8 dereferenceable(8) %m_params, ptr noundef nonnull align 8 dereferenceable(8) %p)
  %m_trail = getelementptr inbounds i8, ptr %this, i64 24
  %0 = ptrtoint ptr %m to i64
  store i64 %0, ptr %m_trail, align 8
  %m_nodes.i.i = getelementptr inbounds i8, ptr %this, i64 32
  store ptr null, ptr %m_nodes.i.i, align 8
  %call.i.i.i.i4 = invoke noalias noundef ptr @_ZN6memory8allocateEm(i64 noundef 128)
          to label %invoke.cont4 unwind label %lpad3

invoke.cont4:                                     ; preds = %invoke.cont
  %m_visited = getelementptr inbounds i8, ptr %this, i64 40
  tail call void @llvm.memset.p0.i64(ptr noundef nonnull align 8 dereferenceable(128) %call.i.i.i.i4, i8 0, i64 128, i1 false)
  store ptr %call.i.i.i.i4, ptr %m_visited, align 8
  %m_capacity.i.i = getelementptr inbounds i8, ptr %this, i64 48
  store i32 8, ptr %m_capacity.i.i, align 8
  %m_size.i.i = getelementptr inbounds i8, ptr %this, i64 52
  store i32 0, ptr %m_size.i.i, align 4
  %m_num_deleted.i.i = getelementptr inbounds i8, ptr %this, i64 56
  store i32 0, ptr %m_num_deleted.i.i, align 8
  %m_qe = getelementptr inbounds i8, ptr %this, i64 64
  store ptr null, ptr %m_qe, align 8
  %m_assumption = getelementptr inbounds i8, ptr %this, i64 72
  %m_true.i = getelementptr inbounds i8, ptr %m, i64 856
  %1 = load ptr, ptr %m_true.i, align 8
  store ptr %1, ptr %m_assumption, align 8
  ret void

lpad3:                                            ; preds = %invoke.cont
  %2 = landingpad { ptr, i32 }
          cleanup
  tail call void @_ZN10ref_vectorI4expr11ast_managerED2Ev(ptr noundef nonnull align 8 dereferenceable(16) %m_trail) #24
  tail call void @_ZN10params_refD1Ev(ptr noundef nonnull align 8 dereferenceable(8) %m_params) #24
  resume { ptr, i32 } %2
}